target datalayout = "e-m:e-p270:32:32-p271:32:32-p272:64:64-i64:64-i128:128-f80:128-n8:16:32:64-S128"
target triple = "x86_64-pc-linux-gnu"

%struct.GlobalConfig = type { i8, i8, i8, i8, i8, ptr, ptr, i8, i32, i8, i8, i32, ptr, i8, i8, i64, ptr, i8, i16, i8, ptr, ptr, ptr, ptr, ptr }
%struct.tool_var = type { ptr, ptr, i64, [1 x i8] }

; Function Attrs: nounwind uwtable
define dso_local void @varcleanup(ptr noundef %0) #0 {
  %2 = alloca ptr, align 8
  %3 = alloca ptr, align 8
  %4 = alloca ptr, align 8
  store ptr %0, ptr %2, align 8, !tbaa !4
  call void @llvm.lifetime.start.p0(i64 8, ptr %3) #9
  %5 = load ptr, ptr %2, align 8, !tbaa !4
  %6 = getelementptr inbounds nuw %struct.GlobalConfig, ptr %5, i32 0, i32 21
  %7 = load ptr, ptr %6, align 8, !tbaa !9
  store ptr %7, ptr %3, align 8, !tbaa !19
  br label %8

8:                                                ; preds = %11, %1
  %9 = load ptr, ptr %3, align 8, !tbaa !19
  %10 = icmp ne ptr %9, null
  br i1 %10, label %11, label %20

11:                                               ; preds = %8
  call void @llvm.lifetime.start.p0(i64 8, ptr %4) #9
  %12 = load ptr, ptr %3, align 8, !tbaa !19
  store ptr %12, ptr %4, align 8, !tbaa !19
  %13 = load ptr, ptr %3, align 8, !tbaa !19
  %14 = getelementptr inbounds nuw %struct.tool_var, ptr %13, i32 0, i32 0
  %15 = load ptr, ptr %14, align 8, !tbaa !20
  store ptr %15, ptr %3, align 8, !tbaa !19
  %16 = load ptr, ptr %4, align 8, !tbaa !19
  %17 = getelementptr inbounds nuw %struct.tool_var, ptr %16, i32 0, i32 1
  %18 = load ptr, ptr %17, align 8, !tbaa !22
  call void @free(ptr noundef %18) #9
  %19 = load ptr, ptr %4, align 8, !tbaa !19
  call void @free(ptr noundef %19) #9
  call void @llvm.lifetime.end.p0(i64 8, ptr %4) #9
  br label %8, !llvm.loop !23

20:                                               ; preds = %8
  call void @llvm.lifetime.end.p0(i64 8, ptr %3) #9
  ret void
}