; Function Attrs: nounwind uwtable
define dso_local void @varcleanup(ptr noundef readonly captures(none) %0) local_unnamed_addr #0 {
  %2 = getelementptr inbounds nuw i8, ptr %0, i64 88
  %3 = load ptr, ptr %2, align 8, !tbaa !4
  %.not6 = icmp eq ptr %3, null
  br i1 %.not6, label %._crit_edge, label %.lr.ph

.lr.ph:                                           ; preds = %1, %.lr.ph
  %.07 = phi ptr [ %4, %.lr.ph ], [ %3, %1 ]
  %4 = load ptr, ptr %.07, align 8, !tbaa !17
  %5 = getelementptr inbounds nuw i8, ptr %.07, i64 8
  %6 = load ptr, ptr %5, align 8, !tbaa !19
  tail call void @free(ptr noundef %6) #12
  tail call void @free(ptr noundef nonnull %.07) #12
  %.not = icmp eq ptr %4, null
  br i1 %.not, label %._crit_edge, label %.lr.ph, !llvm.loop !20

._crit_edge:                                      ; preds = %.lr.ph, %1
  ret void
}